(lp0
S'poi'
p1
aS'bonus'
p2
aS'restricted_stock_deferred'
p3
aS'deferred_income'
p4
aS'expenses'
p5
aS'exercised_stock_options'
p6
aS'other'
p7
aS'restricted_stock'
p8
aS'director_fees'
p9
aS'is_director'
p10
aS'to_messages'
p11
aS'from_poi_to_this_person'
p12
aS'from_messages'
p13
aS'from_this_person_to_poi'
p14
aS'shared_receipt_with_poi'
p15
a.